Certificate:
    Data:
        Version: 3 (0x2)
        Serial Number:
            d3:30:64:a8:bd:a7:c8:02
        Signature Algorithm: sha256WithRSAEncryption
        Issuer: CN = Red Hat UEFI CA 2023, emailAddress = secalert@redhat.com
        Validity
            Not Before: Nov 30 20:11:15 2023 GMT
            Not After : Jan 18 20:11:15 2038 GMT
        Subject: CN = Red Hat UEFI CA 2023, emailAddress = secalert@redhat.com
        Subject Public Key Info:
            Public Key Algorithm: rsaEncryption
                Public-Key: (4096 bit)
                Modulus:
                    00:aa:d1:f4:47:16:a6:95:35:ba:87:ae:4c:95:13:
                    4e:d0:8a:92:2a:57:c9:a1:89:f9:20:ae:99:a8:5c:
                    f1:75:89:5f:de:f6:c7:98:13:90:28:8f:24:e0:a6:
                    40:9b:4d:68:1d:73:49:26:8e:97:81:1f:1c:30:ea:
                    3a:e1:af:e5:4e:76:ac:0b:26:3c:8e:94:8c:51:8f:
                    c2:a1:c4:28:45:b6:3c:0e:6d:d9:a5:22:00:07:49:
                    43:a2:6e:ca:0a:ee:90:a1:89:9a:81:f7:55:7a:d1:
                    fa:6a:34:c2:59:64:3f:8d:32:1d:5b:59:51:d7:16:
                    cb:87:1b:7f:07:c1:d8:8d:c5:e1:15:f3:d7:9f:06:
                    3b:2e:42:9c:81:77:07:8f:5d:a1:70:b6:70:9c:04:
                    89:f6:cc:3e:0d:77:31:8a:57:29:b8:b7:ef:26:59:
                    bf:a4:0b:2e:2a:f1:7c:a1:20:ec:06:62:41:20:2c:
                    69:32:d9:10:6a:ca:93:67:d5:b1:6b:52:21:58:61:
                    d1:09:87:ad:37:50:f3:12:9d:4c:bf:1b:17:16:85:
                    48:49:12:bf:b9:f3:ed:b9:60:15:2a:ca:b7:21:24:
                    85:6d:58:02:41:6f:53:6a:04:fe:25:10:44:81:fa:
                    44:d2:9d:8b:53:32:1e:45:37:5f:1a:31:e7:f7:a2:
                    4d:cb:40:b9:42:12:f4:fd:67:30:08:ff:83:2c:f8:
                    a2:0d:f8:ef:93:80:81:8a:f0:b1:20:35:16:4e:03:
                    5a:b4:f1:a8:9f:08:f0:73:c0:dc:be:4f:a8:29:32:
                    8a:cc:2a:c3:38:a1:00:cd:1a:95:78:31:14:01:25:
                    4d:cb:f8:35:ca:4b:21:27:15:57:d2:24:fc:f1:24:
                    9a:23:5b:41:72:7b:8d:d0:8c:89:18:9f:e8:1b:3e:
                    ed:ef:6f:63:d3:0b:a2:bd:f4:f9:5e:22:19:be:5b:
                    9d:1e:87:e4:4e:c2:43:58:b9:87:06:7f:e2:26:aa:
                    1b:6a:12:b3:a7:c5:28:22:0d:c5:40:18:a8:80:4c:
                    8b:ad:2a:56:86:0a:bb:f3:6b:e9:70:a0:f5:0b:e8:
                    e9:d7:de:30:02:4f:3c:64:b8:7c:04:1c:91:b3:04:
                    0d:58:3d:5a:ea:31:d0:5d:e0:92:a2:0c:20:81:77:
                    8d:6a:70:ef:ca:5b:81:61:4f:7b:ee:01:b5:88:0d:
                    6d:5e:da:b8:bb:64:fb:6b:ab:49:fe:52:51:03:b4:
                    72:ef:c5:e0:bc:a1:12:5d:5b:0f:ab:c2:b8:56:c5:
                    85:33:d2:9d:3b:74:a8:8e:af:b6:9a:57:7e:11:e9:
                    1d:86:ff:15:d6:13:8f:7f:05:7f:94:e2:60:50:c2:
                    fe:6f:11
                Exponent: 65537 (0x10001)
        X509v3 extensions:
            X509v3 Basic Constraints: critical
                CA:TRUE
            X509v3 Subject Key Identifier: 
                87:D5:37:58:18:CE:19:48:BB:A4:4F:CB:18:2A:F8:8F:80:D1:6E:69
            X509v3 Authority Key Identifier: 
                87:D5:37:58:18:CE:19:48:BB:A4:4F:CB:18:2A:F8:8F:80:D1:6E:69
            X509v3 Key Usage: critical
                Digital Signature, Certificate Sign, CRL Sign
    Signature Algorithm: sha256WithRSAEncryption
    Signature Value:
        75:12:72:8a:5a:a4:6d:c2:55:4c:02:79:4f:1c:73:c5:b1:80:
        48:db:21:84:70:d1:03:cb:a5:93:7e:da:76:c5:c0:52:a2:8b:
        91:7b:88:3a:02:33:d8:77:d8:a7:7b:31:12:a3:0c:96:c9:a7:
        ab:41:3c:03:74:49:c6:82:a5:7a:22:39:5e:9c:37:19:a1:31:
        c6:14:a4:15:98:55:19:b9:b1:e1:e8:0a:57:49:39:f5:dd:9b:
        ec:41:c1:82:fe:5b:83:e6:ab:21:55:53:db:f0:1d:09:06:a3:
        4f:f2:1d:cf:53:9d:d8:c4:00:cc:ea:33:d0:15:91:ef:80:c4:
        f1:5f:94:c3:01:05:a3:ec:bf:c9:24:0b:00:85:2b:d9:1f:bb:
        3b:5e:59:83:94:26:b0:80:83:c3:6e:0f:dc:af:c6:38:5e:7b:
        80:36:21:ed:b4:b9:ed:04:54:79:a3:8a:ff:83:76:a1:fc:36:
        ef:f1:97:3a:71:b0:18:fd:bc:37:9f:2f:7e:c1:40:1e:f8:b9:
        f6:d9:e0:a1:6e:04:92:43:7d:e8:c6:33:2e:a2:ef:54:55:05:
        e1:f7:f3:b5:32:92:23:d4:2b:8d:82:ad:86:13:dd:c3:4b:83:
        7c:98:69:72:a8:4c:07:b1:49:c5:47:70:27:91:b6:dd:cf:e9:
        4d:72:7d:b4:13:7e:28:9b:be:61:c3:1c:88:42:57:31:12:e5:
        2a:fd:18:76:1f:c2:c5:1c:99:d8:b8:30:80:91:b3:4f:a5:21:
        8d:46:54:1b:d4:f2:ed:b6:fd:64:ae:51:f0:2d:ba:71:32:d1:
        d9:2b:7c:e8:bf:2e:5d:41:d4:04:bb:11:3f:6e:e0:b9:e3:95:
        f4:c8:14:f1:0f:f4:81:bd:a3:6a:3d:00:93:e9:d7:b0:f6:22:
        1c:b5:ca:72:1a:97:34:da:b6:21:02:a6:34:2a:a3:9f:ca:3d:
        01:71:80:dc:f7:34:0a:41:b5:d4:6f:ed:02:fc:28:20:30:bf:
        26:28:04:2e:72:3d:e3:9c:99:62:29:31:4a:9b:f3:d1:63:12:
        75:88:87:9b:35:be:d2:15:66:cb:fb:5e:4f:d2:73:5d:a0:e7:
        74:35:5b:10:cb:fb:50:23:eb:ac:7e:7d:4f:8e:f1:48:d8:77:
        a9:dd:fd:e6:2b:38:2a:c8:db:6c:46:ab:f9:d7:62:d7:eb:ad:
        05:ce:7e:40:68:37:72:32:db:f8:e7:1e:48:29:83:51:40:50:
        2c:a5:92:a1:b9:93:52:45:b1:22:a6:c1:71:c3:16:d4:ff:51:
        83:ae:28:0c:6b:e9:78:96:c5:e0:c5:f5:0e:fc:13:41:8d:52:
        2b:84:7e:04:65:49:db:ae
-----BEGIN CERTIFICATE-----
MIIFbDCCA1SgAwIBAgIJANMwZKi9p8gCMA0GCSqGSIb3DQEBCwUAMEMxHTAbBgNV
BAMMFFJlZCBIYXQgVUVGSSBDQSAyMDIzMSIwIAYJKoZIhvcNAQkBFhNzZWNhbGVy
dEByZWRoYXQuY29tMB4XDTIzMTEzMDIwMTExNVoXDTM4MDExODIwMTExNVowQzEd
MBsGA1UEAwwUUmVkIEhhdCBVRUZJIENBIDIwMjMxIjAgBgkqhkiG9w0BCQEWE3Nl
Y2FsZXJ0QHJlZGhhdC5jb20wggIiMA0GCSqGSIb3DQEBAQUAA4ICDwAwggIKAoIC
AQCq0fRHFqaVNbqHrkyVE07QipIqV8mhifkgrpmoXPF1iV/e9seYE5AojyTgpkCb
TWgdc0kmjpeBHxww6jrhr+VOdqwLJjyOlIxRj8KhxChFtjwObdmlIgAHSUOibsoK
7pChiZqB91V60fpqNMJZZD+NMh1bWVHXFsuHG38HwdiNxeEV89efBjsuQpyBdweP
XaFwtnCcBIn2zD4NdzGKVym4t+8mWb+kCy4q8XyhIOwGYkEgLGky2RBqypNn1bFr
UiFYYdEJh603UPMSnUy/GxcWhUhJEr+58+25YBUqyrchJIVtWAJBb1NqBP4lEESB
+kTSnYtTMh5FN18aMef3ok3LQLlCEvT9ZzAI/4Ms+KIN+O+TgIGK8LEgNRZOA1q0
8aifCPBzwNy+T6gpMorMKsM4oQDNGpV4MRQBJU3L+DXKSyEnFVfSJPzxJJojW0Fy
e43QjIkYn+gbPu3vb2PTC6K99PleIhm+W50eh+ROwkNYuYcGf+ImqhtqErOnxSgi
DcVAGKiATIutKlaGCrvza+lwoPUL6OnX3jACTzxkuHwEHJGzBA1YPVrqMdBd4JKi
DCCBd41qcO/KW4FhT3vuAbWIDW1e2ri7ZPtrq0n+UlEDtHLvxeC8oRJdWw+rwrhW
xYUz0p07dKiOr7aaV34R6R2G/xXWE49/BX+U4mBQwv5vEQIDAQABo2MwYTAPBgNV
HRMBAf8EBTADAQH/MB0GA1UdDgQWBBSH1TdYGM4ZSLukT8sYKviPgNFuaTAfBgNV
HSMEGDAWgBSH1TdYGM4ZSLukT8sYKviPgNFuaTAOBgNVHQ8BAf8EBAMCAYYwDQYJ
KoZIhvcNAQELBQADggIBAHUScopapG3CVUwCeU8cc8WxgEjbIYRw0QPLpZN+2nbF
wFKii5F7iDoCM9h32Kd7MRKjDJbJp6tBPAN0ScaCpXoiOV6cNxmhMcYUpBWYVRm5
seHoCldJOfXdm+xBwYL+W4PmqyFVU9vwHQkGo0/yHc9TndjEAMzqM9AVke+AxPFf
lMMBBaPsv8kkCwCFK9kfuzteWYOUJrCAg8NuD9yvxjhee4A2Ie20ue0EVHmjiv+D
dqH8Nu/xlzpxsBj9vDefL37BQB74ufbZ4KFuBJJDfejGMy6i71RVBeH387UykiPU
K42CrYYT3cNLg3yYaXKoTAexScVHcCeRtt3P6U1yfbQTfiibvmHDHIhCVzES5Sr9
GHYfwsUcmdi4MICRs0+lIY1GVBvU8u22/WSuUfAtunEy0dkrfOi/Ll1B1AS7ET9u
4LnjlfTIFPEP9IG9o2o9AJPp17D2Ihy1ynIalzTatiECpjQqo5/KPQFxgNz3NApB
tdRv7QL8KCAwvyYoBC5yPeOcmWIpMUqb89FjEnWIh5s1vtIVZsv7Xk/Sc12g53Q1
WxDL+1Aj66x+fU+O8UjYd6nd/eYrOCrI22xGq/nXYtfrrQXOfkBoN3Iy2/jnHkgp
g1FAUCylkqG5k1JFsSKmwXHDFtT/UYOuKAxr6XiWxeDF9Q78E0GNUiuEfgRlSduu
-----END CERTIFICATE-----
